; Function Attrs: nounwind uwtable
define internal i32 @process_frame(ptr noundef readonly captures(none) %0) #1 {
  %2 = alloca ptr, align 8
  %3 = alloca ptr, align 8
  %4 = alloca ptr, align 8
  %5 = getelementptr inbounds nuw i8, ptr %0, i64 8
  %6 = load ptr, ptr %5, align 8, !tbaa !63
  %7 = getelementptr inbounds nuw i8, ptr %0, i64 48
  %8 = load ptr, ptr %7, align 8, !tbaa !64
  %9 = getelementptr inbounds nuw i8, ptr %6, i64 56
  %10 = load ptr, ptr %9, align 8, !tbaa !37
  %11 = load ptr, ptr %10, align 8, !tbaa !38
  call void @llvm.lifetime.start.p0(i64 8, ptr nonnull %2) #11
  call void @llvm.lifetime.start.p0(i64 8, ptr nonnull %3) #11
  call void @llvm.lifetime.start.p0(i64 8, ptr nonnull %4) #11
  %12 = getelementptr inbounds nuw i8, ptr %8, i64 88
  %13 = call i32 @ff_framesync_get_frame(ptr noundef nonnull %12, i32 noundef 0, ptr noundef nonnull %3, i32 noundef 0) #11
  %14 = icmp slt i32 %13, 0
  br i1 %14, label %35, label %15

15:                                               ; preds = %1
  %16 = call i32 @ff_framesync_get_frame(ptr noundef nonnull %12, i32 noundef 1, ptr noundef nonnull %4, i32 noundef 0) #11
  %17 = icmp slt i32 %16, 0
  br i1 %17, label %35, label %18

18:                                               ; preds = %15
  %19 = load ptr, ptr %3, align 8, !tbaa !35
  %20 = load ptr, ptr %4, align 8, !tbaa !35
  %21 = call fastcc i32 @filter_frame(ptr noundef nonnull %6, ptr noundef %2, ptr noundef %19, ptr noundef %20)
  %22 = icmp slt i32 %21, 0
  br i1 %22, label %35, label %23

23:                                               ; preds = %18
  %24 = load ptr, ptr %3, align 8, !tbaa !35
  %25 = getelementptr inbounds nuw i8, ptr %24, i64 136
  %26 = load i64, ptr %25, align 8, !tbaa !65
  %27 = getelementptr inbounds nuw i8, ptr %8, i64 108
  %28 = getelementptr inbounds nuw i8, ptr %11, i64 96
  %29 = load i64, ptr %27, align 4
  %30 = load i64, ptr %28, align 8
  %31 = call i64 @av_rescale_q(i64 noundef %26, i64 %29, i64 %30) #13
  %32 = load ptr, ptr %2, align 8, !tbaa !35
  %33 = getelementptr inbounds nuw i8, ptr %32, i64 136
  store i64 %31, ptr %33, align 8, !tbaa !65
  %34 = call i32 @ff_filter_frame(ptr noundef %11, ptr noundef %32) #11
  br label %35

35:                                               ; preds = %18, %1, %15, %23
  %.011 = phi i32 [ %34, %23 ], [ %13, %1 ], [ %16, %15 ], [ %21, %18 ]
  call void @llvm.lifetime.end.p0(i64 8, ptr nonnull %4) #11
  call void @llvm.lifetime.end.p0(i64 8, ptr nonnull %3) #11
  call void @llvm.lifetime.end.p0(i64 8, ptr nonnull %2) #11
  ret i32 %.011
}